target datalayout = "e-m:e-p270:32:32-p271:32:32-p272:64:64-i64:64-i128:128-f80:128-n8:16:32:64-S128"
target triple = "x86_64-pc-linux-gnu"

%class.LogTagSet = type { ptr, i64, [5 x i32], [4 x i8], %class.LogOutputList, %class.LogDecorators, ptr }
%class.LogOutputList = type <{ [6 x ptr], i32, [4 x i8] }>
%class.LogDecorators = type { i32 }

@_ZN11SymbolTable6_arenaE = hidden global ptr null, align 8
@SymbolTableSize = external global i64, align 8
@_ZL13_current_size = internal global i64 0, align 8
@.str = private unnamed_addr constant [22 x i8] c"Start size: %lu (%lu)\00", align 1
@_ZL12_local_table = internal global ptr null, align 8
@_ZN16LogTagSetMappingILN6LogTag4typeE155ELS1_0ELS1_0ELS1_0ELS1_0ELS1_0EE7_tagsetE = linkonce_odr hidden global %class.LogTagSet zeroinitializer, comdat, align 8

; Function Attrs: mustprogress nounwind uwtable
define linkonce_odr hidden noundef zeroext i1 @_ZNK13LogOutputList8is_levelEN8LogLevel4typeE(ptr noundef nonnull align 8 dereferenceable(52) %0, i32 noundef %1) #1 comdat align 2 {
  %3 = alloca ptr, align 8
  %4 = alloca i32, align 4
  store ptr %0, ptr %3, align 8
  store i32 %1, ptr %4, align 4
  %5 = load ptr, ptr %3, align 8
  %6 = getelementptr inbounds %class.LogOutputList, ptr %5, i32 0, i32 0
  %7 = load i32, ptr %4, align 4
  %8 = zext i32 %7 to i64
  %9 = getelementptr inbounds [6 x ptr], ptr %6, i64 0, i64 %8
  %10 = load volatile ptr, ptr %9, align 8
  %11 = icmp ne ptr %10, null
  ret i1 %11
}

; Function Attrs: mustprogress nounwind uwtable
define linkonce_odr hidden noundef zeroext i1 @_ZNK9LogTagSet8is_levelEN8LogLevel4typeE(ptr noundef nonnull align 8 dereferenceable(112) %0, i32 noundef %1) #1 comdat align 2 {
  %3 = alloca ptr, align 8
  %4 = alloca i32, align 4
  store ptr %0, ptr %3, align 8
  store i32 %1, ptr %4, align 4
  %5 = load ptr, ptr %3, align 8
  %6 = getelementptr inbounds %class.LogTagSet, ptr %5, i32 0, i32 4
  %7 = load i32, ptr %4, align 4
  %8 = call noundef zeroext i1 @_ZNK13LogOutputList8is_levelEN8LogLevel4typeE(ptr noundef nonnull align 8 dereferenceable(52) %6, i32 noundef %7)
  ret i1 %8
}

; Function Attrs: mustprogress nounwind uwtable
define linkonce_odr hidden noundef nonnull align 8 dereferenceable(112) ptr @_ZN16LogTagSetMappingILN6LogTag4typeE155ELS1_0ELS1_0ELS1_0ELS1_0ELS1_0EE6tagsetEv() #1 comdat align 2 {
  ret ptr @_ZN16LogTagSetMappingILN6LogTag4typeE155ELS1_0ELS1_0ELS1_0ELS1_0ELS1_0EE7_tagsetE
}

; Function Attrs: mustprogress nounwind uwtable
define linkonce_odr hidden noundef i32 @_ZmiN5Mutex4RankEi(i32 noundef %0, i32 noundef %1) #1 comdat {
  %3 = alloca i32, align 4
  %4 = alloca i32, align 4
  %5 = alloca i32, align 4
  store i32 %0, ptr %3, align 4
  store i32 %1, ptr %4, align 4
  %6 = load i32, ptr %3, align 4
  %7 = load i32, ptr %4, align 4
  %8 = sub nsw i32 %6, %7
  store i32 %8, ptr %5, align 4
  %9 = load i32, ptr %5, align 4
  ret i32 %9
}

; Function Attrs: mustprogress nounwind uwtable
define linkonce_odr hidden noundef zeroext i1 @_ZN7LogImplILN6LogTag4typeE155ELS1_0ELS1_0ELS1_0ELS1_0ELS1_0EE8is_levelEN8LogLevel4typeE(i32 noundef %0) #1 comdat align 2 {
  %2 = alloca i32, align 4
  store i32 %0, ptr %2, align 4
  %3 = call noundef nonnull align 8 dereferenceable(112) ptr @_ZN16LogTagSetMappingILN6LogTag4typeE155ELS1_0ELS1_0ELS1_0ELS1_0ELS1_0EE6tagsetEv()
  %4 = load i32, ptr %2, align 4
  %5 = call noundef zeroext i1 @_ZNK9LogTagSet8is_levelEN8LogLevel4typeE(ptr noundef nonnull align 8 dereferenceable(112) %3, i32 noundef %4)
  ret i1 %5
}

; Function Attrs: mustprogress nounwind uwtable
define linkonce_odr hidden noundef i64 @_Z9ceil_log2ImTnNSt9enable_ifIXcvbsr3std11is_integralIT_EE5valueEiE4typeELi0EES1_S1_(i64 noundef %0) #1 comdat {
  %2 = alloca i64, align 8
  %3 = alloca i64, align 8
  store i64 %0, ptr %2, align 8
  store i64 1, ptr %3, align 8
  br label %4

4:                                                ; preds = %10, %1
  %5 = load i64, ptr %3, align 8
  %6 = shl i64 1, %5
  %7 = load i64, ptr %2, align 8
  %8 = icmp ult i64 %6, %7
  br i1 %8, label %9, label %13

9:                                                ; preds = %4
  br label %10

10:                                               ; preds = %9
  %11 = load i64, ptr %3, align 8
  %12 = add i64 %11, 1
  store i64 %12, ptr %3, align 8
  br label %4, !llvm.loop !6

13:                                               ; preds = %4
  %14 = load i64, ptr %3, align 8
  ret i64 %14
}

; Function Attrs: mustprogress nounwind uwtable
define hidden void @_ZN11SymbolTable12create_tableEv() #1 align 2 {
  %1 = alloca i64, align 8
  %2 = alloca i8, align 1
  %3 = alloca i64, align 8
  %4 = alloca i8, align 1
  %5 = alloca i64, align 8
  %6 = alloca i64, align 8
  %7 = load i64, ptr @SymbolTableSize, align 8
  %8 = call noundef i64 @_Z9ceil_log2ImTnNSt9enable_ifIXcvbsr3std11is_integralIT_EE5valueEiE4typeELi0EES1_S1_(i64 noundef %7)
  store i64 %8, ptr %6, align 8
  %9 = load i64, ptr %6, align 8
  %10 = shl i64 1, %9
  store i64 %10, ptr @_ZL13_current_size, align 8
  %11 = call noundef zeroext i1 @_ZN7LogImplILN6LogTag4typeE155ELS1_0ELS1_0ELS1_0ELS1_0ELS1_0EE8is_levelEN8LogLevel4typeE(i32 noundef 1)
  br i1 %11, label %13, label %12

12:                                               ; preds = %0
  br label %16

13:                                               ; preds = %0
  %14 = load i64, ptr @_ZL13_current_size, align 8
  %15 = load i64, ptr %6, align 8
  call void (ptr, ...) @_ZN7LogImplILN6LogTag4typeE155ELS1_0ELS1_0ELS1_0ELS1_0ELS1_0EE5writeILN8LogLevel4typeE1EEEvPKcz(ptr noundef @.str, i64 noundef %14, i64 noundef %15)
  br label %16

16:                                               ; preds = %13, %12
  store i64 88, ptr %5, align 8
  %17 = load i64, ptr %5, align 8
  store i64 %17, ptr %3, align 8
  store i8 11, ptr %4, align 1
  %18 = load i64, ptr %3, align 8
  %19 = load i8, ptr %4, align 1
  %20 = call noundef ptr @_Z12AllocateHeapm8MEMFLAGSN17AllocFailStrategy13AllocFailEnumE(i64 noundef %18, i8 noundef zeroext %19, i32 noundef 0) #5
  %21 = load i64, ptr %6, align 8
  %22 = call noundef i32 @_ZmiN5Mutex4RankEi(i32 noundef 21, i32 noundef 2)
  call void @_ZN19ConcurrentHashTableI17SymbolTableConfigL8MEMFLAGS11EEC2EmmmbN5Mutex4RankEPv(ptr noundef nonnull align 8 dereferenceable(88) %20, i64 noundef %21, i64 noundef 24, i64 noundef 100, i1 noundef zeroext true, i32 noundef %22, ptr noundef null)
  store ptr %20, ptr @_ZL12_local_table, align 8
  store i64 48, ptr %1, align 8
  store i8 11, ptr %2, align 1
  %23 = load i64, ptr %1, align 8
  %24 = load i8, ptr %2, align 1
  %25 = call noundef ptr @_Z12AllocateHeapm8MEMFLAGSN17AllocFailStrategy13AllocFailEnumE(i64 noundef %23, i8 noundef zeroext %24, i32 noundef 0) #5
  call void @_ZN5ArenaC1E8MEMFLAGSNS_3TagEm(ptr noundef nonnull align 8 dereferenceable(48) %25, i8 noundef zeroext 11, i8 noundef zeroext 0, i64 noundef 368640)
  store ptr %25, ptr @_ZN11SymbolTable6_arenaE, align 8
  ret void
}