; Function Attrs: mustprogress nounwind uwtable
define hidden void @_ZN11SymbolTable12create_tableEv() local_unnamed_addr #0 align 2 {
  %1 = load i64, ptr @SymbolTableSize, align 8
  br label %2

2:                                                ; preds = %2, %0
  %.0.i = phi i64 [ 1, %0 ], [ %5, %2 ]
  %3 = shl nuw i64 1, %.0.i
  %4 = icmp ult i64 %3, %1
  %5 = add i64 %.0.i, 1
  br i1 %4, label %2, label %_Z9ceil_log2ImTnNSt9enable_ifIXcvbsr3std11is_integralIT_EE5valueEiE4typeELi0EES1_S1_.exit, !llvm.loop !6

_Z9ceil_log2ImTnNSt9enable_ifIXcvbsr3std11is_integralIT_EE5valueEiE4typeELi0EES1_S1_.exit: ; preds = %2
  store i64 %3, ptr @_ZL13_current_size, align 8
  %6 = load volatile ptr, ptr getelementptr inbounds (i8, ptr @_ZN16LogTagSetMappingILN6LogTag4typeE155ELS1_0ELS1_0ELS1_0ELS1_0ELS1_0EE7_tagsetE, i64 48), align 8
  %.not = icmp eq ptr %6, null
  br i1 %.not, label %8, label %7

7:                                                ; preds = %_Z9ceil_log2ImTnNSt9enable_ifIXcvbsr3std11is_integralIT_EE5valueEiE4typeELi0EES1_S1_.exit
  tail call void (ptr, ...) @_ZN7LogImplILN6LogTag4typeE155ELS1_0ELS1_0ELS1_0ELS1_0ELS1_0EE5writeILN8LogLevel4typeE1EEEvPKcz(ptr noundef nonnull @.str, i64 noundef %3, i64 noundef %.0.i)
  br label %8

8:                                                ; preds = %_Z9ceil_log2ImTnNSt9enable_ifIXcvbsr3std11is_integralIT_EE5valueEiE4typeELi0EES1_S1_.exit, %7
  %9 = tail call noundef ptr @_Z12AllocateHeapm8MEMFLAGSN17AllocFailStrategy13AllocFailEnumE(i64 noundef 88, i8 noundef zeroext 11, i32 noundef 0) #18
  tail call void @_ZN19ConcurrentHashTableI17SymbolTableConfigL8MEMFLAGS11EEC2EmmmbN5Mutex4RankEPv(ptr noundef nonnull align 8 dereferenceable(88) %9, i64 noundef %.0.i, i64 noundef 24, i64 noundef 100, i1 noundef zeroext true, i32 noundef 19, ptr noundef null)
  store ptr %9, ptr @_ZL12_local_table, align 8
  %10 = tail call noundef ptr @_Z12AllocateHeapm8MEMFLAGSN17AllocFailStrategy13AllocFailEnumE(i64 noundef 48, i8 noundef zeroext 11, i32 noundef 0) #18
  tail call void @_ZN5ArenaC1E8MEMFLAGSNS_3TagEm(ptr noundef nonnull align 8 dereferenceable(48) %10, i8 noundef zeroext 11, i8 noundef zeroext 0, i64 noundef 368640) #18
  store ptr %10, ptr @_ZN11SymbolTable6_arenaE, align 8
  ret void
}